; Function Attrs: mustprogress uwtable
define void @_ZN3gmx30AnalysisDataFrameAverageModule11dataStartedEPNS_20AbstractAnalysisDataE(ptr noundef nonnull align 8 dereferenceable(32) %0, ptr noundef nonnull %1) unnamed_addr #3 align 2 personality ptr @__gxx_personality_v0 {
  %3 = tail call noundef i32 @_ZNK3gmx20AbstractAnalysisData12dataSetCountEv(ptr noundef nonnull align 8 dereferenceable(16) %1)
  tail call void @_ZN3gmx20AbstractAnalysisData14setColumnCountEii(ptr noundef nonnull align 8 dereferenceable(16) %0, i32 noundef 0, i32 noundef %3)
  %4 = getelementptr inbounds i8, ptr %0, i64 24
  %5 = load ptr, ptr %4, align 8
  %6 = getelementptr inbounds i8, ptr %5, i64 8
  %7 = tail call noundef i32 @_ZNK3gmx20AbstractAnalysisData12dataSetCountEv(ptr noundef nonnull align 8 dereferenceable(16) %1)
  %8 = sext i32 %7 to i64
  %9 = getelementptr inbounds i8, ptr %5, i64 16
  %10 = load ptr, ptr %9, align 8
  %11 = load ptr, ptr %6, align 8
  %12 = ptrtoint ptr %10 to i64
  %13 = ptrtoint ptr %11 to i64
  %14 = sub i64 %12, %13
  %15 = ashr exact i64 %14, 2
  %16 = icmp ult i64 %15, %8
  br i1 %16, label %17, label %19

17:                                               ; preds = %2
  %18 = sub nsw i64 %8, %15
  tail call void @_ZNSt6vectorIiSaIiEE17_M_default_appendEm(ptr noundef nonnull align 8 dereferenceable(24) %6, i64 noundef %18)
  br label %_ZNSt6vectorIiSaIiEE6resizeEm.exit

19:                                               ; preds = %2
  %20 = icmp ugt i64 %15, %8
  br i1 %20, label %21, label %_ZNSt6vectorIiSaIiEE6resizeEm.exit

21:                                               ; preds = %19
  %22 = getelementptr inbounds i32, ptr %11, i64 %8
  %.not.i.i = icmp eq ptr %10, %22
  br i1 %.not.i.i, label %_ZNSt6vectorIiSaIiEE6resizeEm.exit, label %23

23:                                               ; preds = %21
  store ptr %22, ptr %9, align 8
  br label %_ZNSt6vectorIiSaIiEE6resizeEm.exit

_ZNSt6vectorIiSaIiEE6resizeEm.exit:               ; preds = %17, %19, %21, %23
  %24 = load ptr, ptr %4, align 8
  %25 = tail call noundef nonnull align 1 ptr @_ZN3gmx20AbstractAnalysisData13moduleManagerEv(ptr noundef nonnull align 8 dereferenceable(16) %0)
  tail call void @_ZN3gmx19AnalysisDataStorage16startDataStorageEPNS_20AbstractAnalysisDataEPNS_25AnalysisDataModuleManagerE(ptr noundef nonnull align 8 dereferenceable(8) %24, ptr noundef nonnull %0, ptr noundef nonnull %25)
  ret void
}